target datalayout = "e-m:e-p270:32:32-p271:32:32-p272:64:64-i64:64-i128:128-f80:128-n8:16:32:64-S128"
target triple = "x86_64-pc-linux-gnu"

%struct.slurm_conf_t = type { i64, ptr, i16, ptr, ptr, ptr, ptr, ptr, i16, ptr, ptr, ptr, ptr, ptr, ptr, ptr, i16, ptr, ptr, ptr, ptr, i16, ptr, ptr, ptr, i64, ptr, ptr, ptr, ptr, i16, ptr, ptr, i16, i32, ptr, i32, ptr, i32, i32, ptr, ptr, i64, i64, ptr, i16, i16, ptr, i32, i32, ptr, i32, ptr, i32, i16, i16, i16, ptr, i16, i16, ptr, ptr, i32, i16, i16, ptr, i32, i16, ptr, ptr, ptr, ptr, i16, ptr, ptr, ptr, ptr, i32, ptr, ptr, ptr, ptr, i16, i16, ptr, i32, i32, i32, i16, i16, ptr, ptr, i16, ptr, ptr, i32, i32, i32, i32, i32, i64, i32, i32, i16, ptr, ptr, i32, ptr, ptr, ptr, i16, i32, ptr, ptr, i16, ptr, ptr, i32, i16, ptr, ptr, ptr, ptr, i32, i32, i16, i16, i32, ptr, i16, ptr, i32, i32, i32, i32, i32, i32, ptr, i16, ptr, ptr, i32, i16, ptr, i32, i16, i16, ptr, ptr, ptr, i16, ptr, ptr, ptr, ptr, i16, i16, ptr, i16, ptr, i16, ptr, i16, ptr, i16, ptr, ptr, ptr, ptr, i16, ptr, ptr, ptr, i32, ptr, i32, ptr, ptr, i16, ptr, ptr, i32, i16, ptr, ptr, i16, i16, ptr, i16, ptr, ptr, ptr, i32, ptr, i16, i16, ptr, ptr, ptr, ptr, ptr, ptr, ptr, ptr, i16, i32, i16, ptr, ptr, ptr, ptr, i32, ptr, ptr, ptr, i16, ptr, ptr, ptr, i16, ptr, i16, ptr, i16, i16, ptr }
%struct.sockaddr_storage = type { i16, [118 x i8], i64 }
%struct.forward = type { %struct.slurm_node_alias_addrs_t, i16, i16, ptr, i32, i16, i16 }
%struct.slurm_node_alias_addrs_t = type { i64, ptr, ptr, i32, ptr }
%struct.slurm_msg = type { %struct.sockaddr_storage, ptr, i32, i32, i32, i8, i32, i8, i32, ptr, ptr, i32, ptr, ptr, i16, i8, i16, i16, %struct.forward, ptr, %struct.sockaddr_storage, ptr }

@slurm_conf = external global %struct.slurm_conf_t, align 8
@.str.54 = private unnamed_addr constant [17 x i8] c"NET: %s: sent %d\00", align 1
@__func__.slurm_send_only_controller_msg = private unnamed_addr constant [31 x i8] c"slurm_send_only_controller_msg\00", align 1

; Function Attrs: nounwind uwtable
define internal void @_remap_slurmctld_errno() #0 {
  %1 = alloca i32, align 4
  call void @llvm.lifetime.start.p0(i64 4, ptr %1) #12
  %2 = call ptr @__errno_location() #14
  %3 = load i32, ptr %2, align 4
  store i32 %3, ptr %1, align 4
  %4 = load i32, ptr %1, align 4
  %5 = icmp eq i32 %4, 1001
  br i1 %5, label %6, label %8

6:                                                ; preds = %0
  %7 = call ptr @__errno_location() #14
  store i32 1800, ptr %7, align 4
  br label %26

8:                                                ; preds = %0
  %9 = load i32, ptr %1, align 4
  %10 = icmp eq i32 %9, 1002
  br i1 %10, label %11, label %13

11:                                               ; preds = %8
  %12 = call ptr @__errno_location() #14
  store i32 1801, ptr %12, align 4
  br label %25

13:                                               ; preds = %8
  %14 = load i32, ptr %1, align 4
  %15 = icmp eq i32 %14, 1003
  br i1 %15, label %16, label %18

16:                                               ; preds = %13
  %17 = call ptr @__errno_location() #14
  store i32 1802, ptr %17, align 4
  br label %24

18:                                               ; preds = %13
  %19 = load i32, ptr %1, align 4
  %20 = icmp eq i32 %19, 1004
  br i1 %20, label %21, label %23

21:                                               ; preds = %18
  %22 = call ptr @__errno_location() #14
  store i32 1803, ptr %22, align 4
  br label %23

23:                                               ; preds = %21, %18
  br label %24

24:                                               ; preds = %23, %16
  br label %25

25:                                               ; preds = %24, %11
  br label %26

26:                                               ; preds = %25, %6
  call void @llvm.lifetime.end.p0(i64 4, ptr %1) #12
  ret void
}

; Function Attrs: nounwind uwtable
define dso_local void @slurm_msg_set_r_uid(ptr noundef %0, i32 noundef %1) #0 {
  %3 = alloca ptr, align 8
  %4 = alloca i32, align 4
  store ptr %0, ptr %3, align 8
  store i32 %1, ptr %4, align 4
  %5 = load i32, ptr %4, align 4
  %6 = load ptr, ptr %3, align 8
  %7 = getelementptr inbounds nuw %struct.slurm_msg, ptr %6, i32 0, i32 6
  store i32 %5, ptr %7, align 8
  %8 = load ptr, ptr %3, align 8
  %9 = getelementptr inbounds nuw %struct.slurm_msg, ptr %8, i32 0, i32 7
  store i8 1, ptr %9, align 4
  ret void
}

; Function Attrs: nounwind uwtable
define dso_local i32 @slurm_send_only_controller_msg(ptr noundef %0, ptr noundef %1) #0 {
  %3 = alloca ptr, align 8
  %4 = alloca ptr, align 8
  %5 = alloca i32, align 4
  %6 = alloca i32, align 4
  %7 = alloca %struct.sockaddr_storage, align 8
  %8 = alloca i32, align 4
  store ptr %0, ptr %3, align 8
  store ptr %1, ptr %4, align 8
  call void @llvm.lifetime.start.p0(i64 4, ptr %5) #12
  store i32 0, ptr %5, align 4
  call void @llvm.lifetime.start.p0(i64 4, ptr %6) #12
  store i32 -1, ptr %6, align 4
  call void @llvm.lifetime.start.p0(i64 128, ptr %7) #12
  call void @llvm.lifetime.start.p0(i64 4, ptr %8) #12
  store i32 0, ptr %8, align 4
  %9 = load ptr, ptr %4, align 8
  %10 = call i32 @_open_controller(ptr noundef %7, ptr noundef %8, ptr noundef %9)
  store i32 %10, ptr %6, align 4
  %11 = icmp slt i32 %10, 0
  br i1 %11, label %12, label %13

12:                                               ; preds = %2
  store i32 -1, ptr %5, align 4
  br label %41

13:                                               ; preds = %2
  %14 = load ptr, ptr %3, align 8
  %15 = load i32, ptr getelementptr inbounds nuw (%struct.slurm_conf_t, ptr @slurm_conf, i32 0, i32 173), align 8
  call void @slurm_msg_set_r_uid(ptr noundef %14, i32 noundef %15)
  %16 = load i32, ptr %6, align 4
  %17 = load ptr, ptr %3, align 8
  %18 = call i32 @slurm_send_node_msg(i32 noundef %16, ptr noundef %17)
  store i32 %18, ptr %5, align 4
  %19 = icmp slt i32 %18, 0
  br i1 %19, label %20, label %21

20:                                               ; preds = %13
  store i32 -1, ptr %5, align 4
  br label %38

21:                                               ; preds = %13
  br label %22

22:                                               ; preds = %21
  %23 = load i64, ptr getelementptr inbounds nuw (%struct.slurm_conf_t, ptr @slurm_conf, i32 0, i32 42), align 8
  %24 = and i64 %23, 1024
  %25 = icmp ne i64 %24, 0
  br i1 %25, label %26, label %35

26:                                               ; preds = %22
  br label %27

27:                                               ; preds = %26
  %28 = call i32 @get_log_level()
  %29 = icmp sge i32 %28, 4
  br i1 %29, label %30, label %32

30:                                               ; preds = %27
  %31 = load i32, ptr %5, align 4
  call void (i32, ptr, ...) @log_var(i32 noundef 4, ptr noundef @.str.54, ptr noundef @__func__.slurm_send_only_controller_msg, i32 noundef %31)
  br label %32

32:                                               ; preds = %30, %27
  br label %33

33:                                               ; preds = %32
  br label %34

34:                                               ; preds = %33
  br label %35

35:                                               ; preds = %34, %22
  br label %36

36:                                               ; preds = %35
  br label %37

37:                                               ; preds = %36
  store i32 0, ptr %5, align 4
  br label %38

38:                                               ; preds = %37, %20
  %39 = load i32, ptr %6, align 4
  %40 = call i32 @close(i32 noundef %39)
  br label %41

41:                                               ; preds = %38, %12
  %42 = load i32, ptr %5, align 4
  %43 = icmp ne i32 %42, 0
  br i1 %43, label %44, label %45

44:                                               ; preds = %41
  call void @_remap_slurmctld_errno()
  br label %45

45:                                               ; preds = %44, %41
  %46 = load i32, ptr %5, align 4
  call void @llvm.lifetime.end.p0(i64 4, ptr %8) #12
  call void @llvm.lifetime.end.p0(i64 128, ptr %7) #12
  call void @llvm.lifetime.end.p0(i64 4, ptr %6) #12
  call void @llvm.lifetime.end.p0(i64 4, ptr %5) #12
  ret i32 %46
}