; Function Attrs: nounwind uwtable
define dso_local range(i32 -1, 1) i32 @slurm_send_only_controller_msg(ptr noundef %0, ptr noundef %1) local_unnamed_addr #1 {
  %3 = alloca i32, align 4
  call void @llvm.lifetime.start.p0(i64 4, ptr nonnull %3) #19
  store i32 0, ptr %3, align 4
  %4 = call fastcc i32 @_open_controller(ptr noundef nonnull %3, ptr noundef %1)
  %5 = icmp slt i32 %4, 0
  br i1 %5, label %.thread, label %6

6:                                                ; preds = %2
  %7 = load i32, ptr getelementptr inbounds nuw (i8, ptr @slurm_conf, i64 1152), align 8
  %8 = getelementptr inbounds nuw i8, ptr %0, i64 152
  store i32 %7, ptr %8, align 8
  %9 = getelementptr inbounds nuw i8, ptr %0, i64 156
  store i8 1, ptr %9, align 4
  %10 = tail call i32 @slurm_send_node_msg(i32 noundef %4, ptr noundef %0)
  %11 = icmp slt i32 %10, 0
  br i1 %11, label %20, label %12

12:                                               ; preds = %6
  %13 = load i64, ptr getelementptr inbounds nuw (i8, ptr @slurm_conf, i64 320), align 8
  %14 = and i64 %13, 1024
  %.not = icmp eq i64 %14, 0
  br i1 %.not, label %.thread14, label %15

15:                                               ; preds = %12
  %16 = tail call i32 @get_log_level() #19
  %17 = icmp sgt i32 %16, 3
  br i1 %17, label %18, label %.thread14

18:                                               ; preds = %15
  tail call void (i32, ptr, ...) @log_var(i32 noundef 4, ptr noundef nonnull @.str.54, ptr noundef nonnull @__func__.slurm_send_only_controller_msg, i32 noundef %10) #19
  br label %.thread14

.thread14:                                        ; preds = %15, %18, %12
  %19 = tail call i32 @close(i32 noundef %4) #19
  br label %_remap_slurmctld_errno.exit

20:                                               ; preds = %6
  %21 = tail call i32 @close(i32 noundef %4) #19
  br label %.thread

.thread:                                          ; preds = %2, %20
  %22 = tail call ptr @__errno_location() #21
  %23 = load i32, ptr %22, align 4
  %switch.tableidx = add i32 %23, -1001
  %24 = icmp ult i32 %switch.tableidx, 4
  br i1 %24, label %switch.lookup, label %_remap_slurmctld_errno.exit

switch.lookup:                                    ; preds = %.thread
  %switch.offset = add nuw nsw i32 %23, 799
  store i32 %switch.offset, ptr %22, align 4
  br label %_remap_slurmctld_errno.exit

_remap_slurmctld_errno.exit:                      ; preds = %.thread, %switch.lookup, %.thread14
  %.013 = phi i32 [ 0, %.thread14 ], [ -1, %.thread ], [ -1, %switch.lookup ]
  call void @llvm.lifetime.end.p0(i64 4, ptr nonnull %3) #19
  ret i32 %.013
}